target datalayout = "e-m:e-p270:32:32-p271:32:32-p272:64:64-i64:64-i128:128-f80:128-n8:16:32:64-S128"
target triple = "x86_64-pc-linux-gnu"

%"class.std::__cxx11::basic_string" = type { %"struct.std::__cxx11::basic_string<char>::_Alloc_hider", i64, %union.anon }
%"struct.std::__cxx11::basic_string<char>::_Alloc_hider" = type { ptr }
%union.anon = type { i64, [8 x i8] }
%"class.Json::Value" = type { %"union.Json::Value::ValueHolder", %struct.anon, %"class.Json::Value::Comments", i64, i64 }
%"union.Json::Value::ValueHolder" = type { i64 }
%struct.anon = type { i16, [2 x i8] }
%"class.Json::Value::Comments" = type { %"class.std::unique_ptr.968" }
%"class.std::unique_ptr.968" = type { %"struct.std::__uniq_ptr_data.969" }
%"struct.std::__uniq_ptr_data.969" = type { %"class.std::__uniq_ptr_impl.970" }
%"class.std::__uniq_ptr_impl.970" = type { %"class.std::tuple.971" }
%"class.std::tuple.971" = type { %"struct.std::_Tuple_impl.972" }
%"struct.std::_Tuple_impl.972" = type { %"struct.std::_Head_base.975" }
%"struct.std::_Head_base.975" = type { ptr }
%"class.Json::ValueConstIterator" = type { %"class.Json::ValueIteratorBase.base", [7 x i8] }
%"class.Json::ValueIteratorBase.base" = type <{ %"struct.std::_Rb_tree_iterator.989", i8 }>
%"struct.std::_Rb_tree_iterator.989" = type { ptr }

; Function Attrs: mustprogress uwtable
define linkonce_odr dso_local noundef nonnull align 8 dereferenceable(9) ptr @_ZN4Json18ValueConstIteratorppEv(ptr noundef nonnull align 8 dereferenceable(9) %0) #4 comdat align 2 {
  %2 = alloca ptr, align 8
  store ptr %0, ptr %2, align 8
  %3 = load ptr, ptr %2, align 8
  call void @_ZN4Json17ValueIteratorBase9incrementEv(ptr noundef nonnull align 8 dereferenceable(9) %3)
  ret ptr %3
}

; Function Attrs: mustprogress uwtable
define linkonce_odr dso_local noundef nonnull align 8 dereferenceable(40) ptr @_ZNK4Json18ValueConstIteratordeEv(ptr noundef nonnull align 8 dereferenceable(9) %0) #4 comdat align 2 {
  %2 = alloca ptr, align 8
  store ptr %0, ptr %2, align 8
  %3 = load ptr, ptr %2, align 8
  %4 = call noundef nonnull align 8 dereferenceable(40) ptr @_ZNK4Json17ValueIteratorBase5derefEv(ptr noundef nonnull align 8 dereferenceable(9) %3)
  ret ptr %4
}

; Function Attrs: mustprogress uwtable
define linkonce_odr dso_local noundef zeroext i1 @_ZNK4Json17ValueIteratorBaseneERKS0_(ptr noundef nonnull align 8 dereferenceable(9) %0, ptr noundef nonnull align 8 dereferenceable(9) %1) #4 comdat align 2 {
  %3 = alloca ptr, align 8
  %4 = alloca ptr, align 8
  store ptr %0, ptr %3, align 8
  store ptr %1, ptr %4, align 8
  %5 = load ptr, ptr %3, align 8
  %6 = load ptr, ptr %4, align 8
  %7 = call noundef zeroext i1 @_ZNK4Json17ValueIteratorBase7isEqualERKS0_(ptr noundef nonnull align 8 dereferenceable(9) %5, ptr noundef nonnull align 8 dereferenceable(9) %6)
  %8 = xor i1 %7, true
  ret i1 %8
}

; Function Attrs: mustprogress uwtable
define internal void @"_ZZN22cmGlobalNinjaGenerator15WriteDyndepFileERKNSt7__cxx1112basic_stringIcSt11char_traitsIcESaIcEEES7_S7_S7_S7_RKSt6vectorIS5_SaIS5_EES7_SC_SC_S7_S7_RK21cmCxxModuleExportInfoENK3$_4clERN4Json5ValueERKSI_"(ptr noundef nonnull align 1 dereferenceable(1) %0, ptr noundef nonnull align 8 dereferenceable(40) %1, ptr noundef nonnull align 8 dereferenceable(40) %2) #4 align 2 personality ptr @__gxx_personality_v0 {
  %4 = alloca ptr, align 8
  %5 = alloca ptr, align 8
  %6 = alloca ptr, align 8
  %7 = alloca %"class.Json::ValueConstIterator", align 8
  %8 = alloca %"class.Json::ValueConstIterator", align 8
  %9 = alloca %"class.std::__cxx11::basic_string", align 8
  %10 = alloca %"class.Json::Value", align 8
  %11 = alloca ptr, align 8
  %12 = alloca i32, align 4
  %13 = alloca i32, align 4
  store ptr %0, ptr %4, align 8
  store ptr %1, ptr %5, align 8
  store ptr %2, ptr %6, align 8
  %14 = load ptr, ptr %6, align 8
  %15 = call noundef zeroext i1 @_ZNK4Json5Value8isObjectEv(ptr noundef nonnull align 8 dereferenceable(40) %14)
  br i1 %15, label %17, label %16

16:                                               ; preds = %3
  br label %59

17:                                               ; preds = %3
  %18 = load ptr, ptr %6, align 8
  %19 = call { ptr, i8 } @_ZNK4Json5Value5beginEv(ptr noundef nonnull align 8 dereferenceable(40) %18)
  %20 = getelementptr inbounds { ptr, i8 }, ptr %7, i32 0, i32 0
  %21 = extractvalue { ptr, i8 } %19, 0
  store ptr %21, ptr %20, align 8
  %22 = getelementptr inbounds { ptr, i8 }, ptr %7, i32 0, i32 1
  %23 = extractvalue { ptr, i8 } %19, 1
  store i8 %23, ptr %22, align 8
  br label %24

24:                                               ; preds = %57, %17
  %25 = load ptr, ptr %6, align 8
  %26 = call { ptr, i8 } @_ZNK4Json5Value3endEv(ptr noundef nonnull align 8 dereferenceable(40) %25)
  %27 = getelementptr inbounds { ptr, i8 }, ptr %8, i32 0, i32 0
  %28 = extractvalue { ptr, i8 } %26, 0
  store ptr %28, ptr %27, align 8
  %29 = getelementptr inbounds { ptr, i8 }, ptr %8, i32 0, i32 1
  %30 = extractvalue { ptr, i8 } %26, 1
  store i8 %30, ptr %29, align 8
  %31 = call noundef zeroext i1 @_ZNK4Json17ValueIteratorBaseneERKS0_(ptr noundef nonnull align 8 dereferenceable(9) %7, ptr noundef nonnull align 8 dereferenceable(9) %8)
  br i1 %31, label %32, label %59

32:                                               ; preds = %24
  call void @_ZNK4Json17ValueIteratorBase3keyEv(ptr dead_on_unwind writable sret(%"class.Json::Value") align 8 %10, ptr noundef nonnull align 8 dereferenceable(9) %7)
  invoke void @_ZNK4Json5Value8asStringB5cxx11Ev(ptr dead_on_unwind writable sret(%"class.std::__cxx11::basic_string") align 8 %9, ptr noundef nonnull align 8 dereferenceable(40) %10)
          to label %33 unwind label %38

33:                                               ; preds = %32
  call void @_ZN4Json5ValueD1Ev(ptr noundef nonnull align 8 dereferenceable(40) %10) #3
  %34 = load ptr, ptr %5, align 8
  %35 = invoke noundef zeroext i1 @_ZNK4Json5Value8isMemberERKNSt7__cxx1112basic_stringIcSt11char_traitsIcESaIcEEE(ptr noundef nonnull align 8 dereferenceable(40) %34, ptr noundef nonnull align 8 dereferenceable(32) %9)
          to label %36 unwind label %42

36:                                               ; preds = %33
  br i1 %35, label %37, label %46

37:                                               ; preds = %36
  store i32 4, ptr %13, align 4
  br label %54

38:                                               ; preds = %32
  %39 = landingpad { ptr, i32 }
          cleanup
  %40 = extractvalue { ptr, i32 } %39, 0
  store ptr %40, ptr %11, align 8
  %41 = extractvalue { ptr, i32 } %39, 1
  store i32 %41, ptr %12, align 4
  call void @_ZN4Json5ValueD1Ev(ptr noundef nonnull align 8 dereferenceable(40) %10) #3
  br label %60

42:                                               ; preds = %51, %48, %46, %33
  %43 = landingpad { ptr, i32 }
          cleanup
  %44 = extractvalue { ptr, i32 } %43, 0
  store ptr %44, ptr %11, align 8
  %45 = extractvalue { ptr, i32 } %43, 1
  store i32 %45, ptr %12, align 4
  call void @_ZNSt7__cxx1112basic_stringIcSt11char_traitsIcESaIcEED1Ev(ptr noundef nonnull align 8 dereferenceable(32) %9) #3
  br label %60

46:                                               ; preds = %36
  %47 = invoke noundef nonnull align 8 dereferenceable(40) ptr @_ZNK4Json18ValueConstIteratordeEv(ptr noundef nonnull align 8 dereferenceable(9) %7)
          to label %48 unwind label %42

48:                                               ; preds = %46
  %49 = load ptr, ptr %5, align 8
  %50 = invoke noundef nonnull align 8 dereferenceable(40) ptr @_ZN4Json5ValueixERKNSt7__cxx1112basic_stringIcSt11char_traitsIcESaIcEEE(ptr noundef nonnull align 8 dereferenceable(40) %49, ptr noundef nonnull align 8 dereferenceable(32) %9)
          to label %51 unwind label %42

51:                                               ; preds = %48
  %52 = invoke noundef nonnull align 8 dereferenceable(40) ptr @_ZN4Json5ValueaSERKS0_(ptr noundef nonnull align 8 dereferenceable(40) %50, ptr noundef nonnull align 8 dereferenceable(40) %47)
          to label %53 unwind label %42

53:                                               ; preds = %51
  store i32 0, ptr %13, align 4
  br label %54

54:                                               ; preds = %53, %37
  call void @_ZNSt7__cxx1112basic_stringIcSt11char_traitsIcESaIcEED1Ev(ptr noundef nonnull align 8 dereferenceable(32) %9) #3
  %55 = load i32, ptr %13, align 4
  switch i32 %55, label %65 [
    i32 0, label %56
    i32 4, label %57
  ]

56:                                               ; preds = %54
  br label %57

57:                                               ; preds = %56, %54
  %58 = call noundef nonnull align 8 dereferenceable(9) ptr @_ZN4Json18ValueConstIteratorppEv(ptr noundef nonnull align 8 dereferenceable(9) %7)
  br label %24, !llvm.loop !15

59:                                               ; preds = %24, %16
  ret void

60:                                               ; preds = %42, %38
  %61 = load ptr, ptr %11, align 8
  %62 = load i32, ptr %12, align 4
  %63 = insertvalue { ptr, i32 } poison, ptr %61, 0
  %64 = insertvalue { ptr, i32 } %63, i32 %62, 1
  resume { ptr, i32 } %64

65:                                               ; preds = %54
  unreachable
}