; Function Attrs: mustprogress uwtable
define internal fastcc void @"_ZZN22cmGlobalNinjaGenerator15WriteDyndepFileERKNSt7__cxx1112basic_stringIcSt11char_traitsIcESaIcEEES7_S7_S7_S7_RKSt6vectorIS5_SaIS5_EES7_SC_SC_S7_S7_RK21cmCxxModuleExportInfoENK3$_4clERN4Json5ValueERKSI_"(ptr noundef nonnull align 8 dereferenceable(40) %0, ptr noundef nonnull align 8 dereferenceable(40) %1) unnamed_addr #3 align 2 personality ptr @__gxx_personality_v0 {
  %3 = alloca %"class.Json::ValueConstIterator", align 8
  %4 = alloca %"class.Json::ValueConstIterator", align 8
  %5 = alloca %"class.std::__cxx11::basic_string", align 8
  %6 = alloca %"class.Json::Value", align 8
  %7 = tail call noundef zeroext i1 @_ZNK4Json5Value8isObjectEv(ptr noundef nonnull align 8 dereferenceable(40) %1)
  br i1 %7, label %8, label %.loopexit

8:                                                ; preds = %2
  %9 = tail call { ptr, i8 } @_ZNK4Json5Value5beginEv(ptr noundef nonnull align 8 dereferenceable(40) %1)
  %10 = extractvalue { ptr, i8 } %9, 0
  store ptr %10, ptr %3, align 8
  %11 = getelementptr inbounds i8, ptr %3, i64 8
  %12 = extractvalue { ptr, i8 } %9, 1
  store i8 %12, ptr %11, align 8
  %13 = tail call { ptr, i8 } @_ZNK4Json5Value3endEv(ptr noundef nonnull align 8 dereferenceable(40) %1)
  %14 = extractvalue { ptr, i8 } %13, 0
  store ptr %14, ptr %4, align 8
  %15 = getelementptr inbounds i8, ptr %4, i64 8
  %16 = extractvalue { ptr, i8 } %13, 1
  store i8 %16, ptr %15, align 8
  %17 = call noundef zeroext i1 @_ZNK4Json17ValueIteratorBase7isEqualERKS0_(ptr noundef nonnull align 8 dereferenceable(9) %3, ptr noundef nonnull align 8 dereferenceable(9) %4)
  br i1 %17, label %.loopexit, label %.lr.ph

.lr.ph:                                           ; preds = %8, %30
  call void @_ZNK4Json17ValueIteratorBase3keyEv(ptr dead_on_unwind nonnull writable sret(%"class.Json::Value") align 8 %6, ptr noundef nonnull align 8 dereferenceable(9) %3)
  invoke void @_ZNK4Json5Value8asStringB5cxx11Ev(ptr dead_on_unwind nonnull writable sret(%"class.std::__cxx11::basic_string") align 8 %5, ptr noundef nonnull align 8 dereferenceable(40) %6)
          to label %18 unwind label %21

18:                                               ; preds = %.lr.ph
  call void @_ZN4Json5ValueD1Ev(ptr noundef nonnull align 8 dereferenceable(40) %6) #23
  %19 = invoke noundef zeroext i1 @_ZNK4Json5Value8isMemberERKNSt7__cxx1112basic_stringIcSt11char_traitsIcESaIcEEE(ptr noundef nonnull align 8 dereferenceable(40) %0, ptr noundef nonnull align 8 dereferenceable(32) %5)
          to label %20 unwind label %23

20:                                               ; preds = %18
  br i1 %19, label %30, label %25

21:                                               ; preds = %.lr.ph
  %22 = landingpad { ptr, i32 }
          cleanup
  call void @_ZN4Json5ValueD1Ev(ptr noundef nonnull align 8 dereferenceable(40) %6) #23
  br label %35

23:                                               ; preds = %25, %28, %_ZNK4Json18ValueConstIteratordeEv.exit, %18
  %24 = landingpad { ptr, i32 }
          cleanup
  call void @_ZNSt7__cxx1112basic_stringIcSt11char_traitsIcESaIcEED1Ev(ptr noundef nonnull align 8 dereferenceable(32) %5) #23
  br label %35

25:                                               ; preds = %20
  %26 = invoke noundef nonnull align 8 dereferenceable(40) ptr @_ZNK4Json17ValueIteratorBase5derefEv(ptr noundef nonnull align 8 dereferenceable(9) %3)
          to label %_ZNK4Json18ValueConstIteratordeEv.exit unwind label %23

_ZNK4Json18ValueConstIteratordeEv.exit:           ; preds = %25
  %27 = invoke noundef nonnull align 8 dereferenceable(40) ptr @_ZN4Json5ValueixERKNSt7__cxx1112basic_stringIcSt11char_traitsIcESaIcEEE(ptr noundef nonnull align 8 dereferenceable(40) %0, ptr noundef nonnull align 8 dereferenceable(32) %5)
          to label %28 unwind label %23

28:                                               ; preds = %_ZNK4Json18ValueConstIteratordeEv.exit
  %29 = invoke noundef nonnull align 8 dereferenceable(40) ptr @_ZN4Json5ValueaSERKS0_(ptr noundef nonnull align 8 dereferenceable(40) %27, ptr noundef nonnull align 8 dereferenceable(40) %26)
          to label %30 unwind label %23

30:                                               ; preds = %28, %20
  call void @_ZNSt7__cxx1112basic_stringIcSt11char_traitsIcESaIcEED1Ev(ptr noundef nonnull align 8 dereferenceable(32) %5) #23
  call void @_ZN4Json17ValueIteratorBase9incrementEv(ptr noundef nonnull align 8 dereferenceable(9) %3)
  %31 = call { ptr, i8 } @_ZNK4Json5Value3endEv(ptr noundef nonnull align 8 dereferenceable(40) %1)
  %32 = extractvalue { ptr, i8 } %31, 0
  store ptr %32, ptr %4, align 8
  %33 = extractvalue { ptr, i8 } %31, 1
  store i8 %33, ptr %15, align 8
  %34 = call noundef zeroext i1 @_ZNK4Json17ValueIteratorBase7isEqualERKS0_(ptr noundef nonnull align 8 dereferenceable(9) %3, ptr noundef nonnull align 8 dereferenceable(9) %4)
  br i1 %34, label %.loopexit, label %.lr.ph, !llvm.loop !1118

.loopexit:                                        ; preds = %30, %8, %2
  ret void

35:                                               ; preds = %23, %21
  %.pn = phi { ptr, i32 } [ %24, %23 ], [ %22, %21 ]
  resume { ptr, i32 } %.pn
}